target datalayout = "e-m:e-p270:32:32-p271:32:32-p272:64:64-i64:64-i128:128-f80:128-n8:16:32:64-S128"
target triple = "x86_64-pc-linux-gnu"

%struct.X509V3_CONF_METHOD_st = type { ptr, ptr, ptr, ptr }
%struct.v3_ext_ctx = type { i32, ptr, ptr, ptr, ptr, ptr, ptr, ptr }

@.str = private unnamed_addr constant [33 x i8] c"../openssl/crypto/x509/v3_conf.c\00", align 1
@__func__.X509V3_set_conf_lhash = private unnamed_addr constant [22 x i8] c"X509V3_set_conf_lhash\00", align 1
@conf_lhash_method = internal global %struct.X509V3_CONF_METHOD_st { ptr @conf_lhash_get_string, ptr @conf_lhash_get_section, ptr null, ptr null }, align 8

; Function Attrs: nounwind uwtable
define void @X509V3_set_conf_lhash(ptr noundef %0, ptr noundef %1) #0 {
  %3 = alloca ptr, align 8
  %4 = alloca ptr, align 8
  store ptr %0, ptr %3, align 8, !tbaa !8
  store ptr %1, ptr %4, align 8, !tbaa !77
  %5 = load ptr, ptr %3, align 8, !tbaa !8
  %6 = icmp eq ptr %5, null
  br i1 %6, label %7, label %8

7:                                                ; preds = %2
  call void @ERR_new()
  call void @ERR_set_debug(ptr noundef @.str, i32 noundef 548, ptr noundef @__func__.X509V3_set_conf_lhash)
  call void (i32, i32, ptr, ...) @ERR_set_error(i32 noundef 34, i32 noundef 786690, ptr noundef null)
  br label %14

8:                                                ; preds = %2
  %9 = load ptr, ptr %3, align 8, !tbaa !8
  %10 = getelementptr inbounds nuw %struct.v3_ext_ctx, ptr %9, i32 0, i32 5
  store ptr @conf_lhash_method, ptr %10, align 8, !tbaa !47
  %11 = load ptr, ptr %4, align 8, !tbaa !77
  %12 = load ptr, ptr %3, align 8, !tbaa !8
  %13 = getelementptr inbounds nuw %struct.v3_ext_ctx, ptr %12, i32 0, i32 6
  store ptr %11, ptr %13, align 8, !tbaa !40
  br label %14

14:                                               ; preds = %8, %7
  ret void
}