; Function Attrs: nounwind uwtable
define void @X509V3_set_conf_lhash(ptr noundef writeonly captures(address_is_null) %0, ptr noundef %1) local_unnamed_addr #0 {
  %3 = icmp eq ptr %0, null
  br i1 %3, label %4, label %5

4:                                                ; preds = %2
  tail call void @ERR_new() #6
  tail call void @ERR_set_debug(ptr noundef nonnull @.str, i32 noundef 548, ptr noundef nonnull @__func__.X509V3_set_conf_lhash) #6
  tail call void (i32, i32, ptr, ...) @ERR_set_error(i32 noundef 34, i32 noundef 786690, ptr noundef null) #6
  br label %8

5:                                                ; preds = %2
  %6 = getelementptr inbounds nuw i8, ptr %0, i64 40
  store ptr @conf_lhash_method, ptr %6, align 8, !tbaa !29
  %7 = getelementptr inbounds nuw i8, ptr %0, i64 48
  store ptr %1, ptr %7, align 8, !tbaa !22
  br label %8

8:                                                ; preds = %5, %4
  ret void
}